target datalayout = "e-m:e-p270:32:32-p271:32:32-p272:64:64-i64:64-i128:128-f80:128-n8:16:32:64-S128"
target triple = "x86_64-pc-linux-gnu"

%struct.nghttp2_session = type { %struct.nghttp2_map, %struct.nghttp2_outbound_queue, %struct.nghttp2_outbound_queue, %struct.nghttp2_outbound_queue, [8 x %struct.anon], %struct.nghttp2_active_outbound_item, %struct.nghttp2_inbound_frame, %struct.nghttp2_hd_deflater, %struct.nghttp2_hd_inflater, %struct.nghttp2_session_callbacks, %struct.nghttp2_mem, ptr, ptr, %struct.nghttp2_ratelim, i64, i64, i64, i64, i64, i64, i64, i64, i64, i64, i64, i64, i64, i64, i32, i32, i32, i32, i32, i32, i32, i32, i32, i32, i32, i32, i8, %struct.nghttp2_settings_storage, %struct.nghttp2_settings_storage, i32, i32, i32, i8, i8, i8, i8, i8, i8, [32 x i8] }
%struct.nghttp2_map = type { ptr, ptr, i64, i64 }
%struct.nghttp2_outbound_queue = type { ptr, ptr, i64 }
%struct.anon = type { %struct.nghttp2_pq }
%struct.nghttp2_pq = type { ptr, ptr, i64, i64, ptr }
%struct.nghttp2_active_outbound_item = type { ptr, %struct.nghttp2_bufs, i32 }
%struct.nghttp2_bufs = type { ptr, ptr, ptr, i64, i64, i64, i64, i64 }
%struct.nghttp2_inbound_frame = type { %union.nghttp2_frame, %union.nghttp2_ext_frame_payload, ptr, %struct.nghttp2_buf, %struct.nghttp2_buf, ptr, i64, i64, i64, i64, i32, [32 x i8] }
%union.nghttp2_frame = type { %struct.nghttp2_headers }
%struct.nghttp2_headers = type { %struct.nghttp2_frame_hd, i64, %struct.nghttp2_priority_spec, ptr, i64, i32 }
%struct.nghttp2_frame_hd = type { i64, i32, i8, i8, i8 }
%struct.nghttp2_priority_spec = type { i32, i32, i8 }
%union.nghttp2_ext_frame_payload = type { %struct.nghttp2_ext_altsvc }
%struct.nghttp2_ext_altsvc = type { ptr, i64, ptr, i64 }
%struct.nghttp2_buf = type { ptr, ptr, ptr, ptr, ptr }
%struct.nghttp2_hd_deflater = type { %struct.nghttp2_hd_context, %struct.nghttp2_hd_map, i64, i64, i8 }
%struct.nghttp2_hd_context = type { %struct.nghttp2_hd_ringbuf, ptr, i64, i64, i32, i8 }
%struct.nghttp2_hd_ringbuf = type { ptr, i64, i64, i64 }
%struct.nghttp2_hd_map = type { [128 x ptr] }
%struct.nghttp2_hd_inflater = type { %struct.nghttp2_hd_context, %struct.nghttp2_hd_huff_decode_context, %struct.nghttp2_buf, %struct.nghttp2_buf, ptr, ptr, ptr, ptr, i64, i64, i64, i64, i64, i32, i32, i8, i8, i8 }
%struct.nghttp2_hd_huff_decode_context = type { i16 }
%struct.nghttp2_session_callbacks = type { ptr, ptr, ptr, ptr, ptr, ptr, ptr, ptr, ptr, ptr, ptr, ptr, ptr, ptr, ptr, ptr, ptr, ptr, ptr, ptr, ptr, ptr, ptr, ptr, ptr, ptr, ptr, ptr }
%struct.nghttp2_mem = type { ptr, ptr, ptr, ptr, ptr }
%struct.nghttp2_ratelim = type { i64, i64, i64, i64 }
%struct.nghttp2_settings_storage = type { i32, i32, i32, i32, i32, i32, i32, i32 }

; Function Attrs: nounwind uwtable
define internal i32 @session_is_outgoing_concurrent_streams_max(ptr noundef %0) #0 {
  %2 = alloca ptr, align 8
  store ptr %0, ptr %2, align 8, !tbaa !7
  %3 = load ptr, ptr %2, align 8, !tbaa !7
  %4 = getelementptr inbounds nuw %struct.nghttp2_session, ptr %3, i32 0, i32 41
  %5 = getelementptr inbounds nuw %struct.nghttp2_settings_storage, ptr %4, i32 0, i32 2
  %6 = load i32, ptr %5, align 4, !tbaa !69
  %7 = zext i32 %6 to i64
  %8 = load ptr, ptr %2, align 8, !tbaa !7
  %9 = getelementptr inbounds nuw %struct.nghttp2_session, ptr %8, i32 0, i32 15
  %10 = load i64, ptr %9, align 8, !tbaa !136
  %11 = icmp ule i64 %7, %10
  %12 = zext i1 %11 to i32
  ret i32 %12
}

; Function Attrs: nounwind uwtable
define internal i32 @session_sched_empty(ptr noundef %0) #0 {
  %2 = alloca i32, align 4
  %3 = alloca ptr, align 8
  %4 = alloca i64, align 8
  %5 = alloca i32, align 4
  store ptr %0, ptr %3, align 8, !tbaa !7
  call void @llvm.lifetime.start.p0(i64 8, ptr %4) #10
  store i64 0, ptr %4, align 8, !tbaa !41
  br label %6

6:                                                ; preds = %19, %1
  %7 = load i64, ptr %4, align 8, !tbaa !41
  %8 = icmp ult i64 %7, 8
  br i1 %8, label %9, label %22

9:                                                ; preds = %6
  %10 = load ptr, ptr %3, align 8, !tbaa !7
  %11 = getelementptr inbounds nuw %struct.nghttp2_session, ptr %10, i32 0, i32 4
  %12 = load i64, ptr %4, align 8, !tbaa !41
  %13 = getelementptr inbounds nuw [8 x %struct.anon], ptr %11, i64 0, i64 %12
  %14 = getelementptr inbounds nuw %struct.anon, ptr %13, i32 0, i32 0
  %15 = call i32 @nghttp2_pq_empty(ptr noundef %14)
  %16 = icmp ne i32 %15, 0
  br i1 %16, label %18, label %17

17:                                               ; preds = %9
  store i32 0, ptr %2, align 4
  store i32 1, ptr %5, align 4
  br label %23

18:                                               ; preds = %9
  br label %19

19:                                               ; preds = %18
  %20 = load i64, ptr %4, align 8, !tbaa !41
  %21 = add i64 %20, 1
  store i64 %21, ptr %4, align 8, !tbaa !41
  br label %6, !llvm.loop !257

22:                                               ; preds = %6
  store i32 1, ptr %2, align 4
  store i32 1, ptr %5, align 4
  br label %23

23:                                               ; preds = %22, %17
  call void @llvm.lifetime.end.p0(i64 8, ptr %4) #10
  %24 = load i32, ptr %2, align 4
  ret i32 %24
}

; Function Attrs: nounwind uwtable
define internal i64 @session_get_num_active_streams(ptr noundef %0) #0 {
  %2 = alloca ptr, align 8
  store ptr %0, ptr %2, align 8, !tbaa !7
  %3 = load ptr, ptr %2, align 8, !tbaa !7
  %4 = getelementptr inbounds nuw %struct.nghttp2_session, ptr %3, i32 0, i32 0
  %5 = call i64 @nghttp2_map_size(ptr noundef %4)
  %6 = load ptr, ptr %2, align 8, !tbaa !7
  %7 = getelementptr inbounds nuw %struct.nghttp2_session, ptr %6, i32 0, i32 19
  %8 = load i64, ptr %7, align 8, !tbaa !256
  %9 = sub i64 %5, %8
  %10 = load ptr, ptr %2, align 8, !tbaa !7
  %11 = getelementptr inbounds nuw %struct.nghttp2_session, ptr %10, i32 0, i32 20
  %12 = load i64, ptr %11, align 8, !tbaa !129
  %13 = sub i64 %9, %12
  ret i64 %13
}

; Function Attrs: nounwind uwtable
define i32 @nghttp2_session_want_write(ptr noundef %0) #0 {
  %2 = alloca i32, align 4
  %3 = alloca ptr, align 8
  store ptr %0, ptr %3, align 8, !tbaa !7
  %4 = load ptr, ptr %3, align 8, !tbaa !7
  %5 = getelementptr inbounds nuw %struct.nghttp2_session, ptr %4, i32 0, i32 50
  %6 = load i8, ptr %5, align 4, !tbaa !39
  %7 = zext i8 %6 to i32
  %8 = and i32 %7, 2
  %9 = icmp ne i32 %8, 0
  br i1 %9, label %10, label %11

10:                                               ; preds = %1
  store i32 0, ptr %2, align 4
  br label %54

11:                                               ; preds = %1
  %12 = load ptr, ptr %3, align 8, !tbaa !7
  %13 = getelementptr inbounds nuw %struct.nghttp2_session, ptr %12, i32 0, i32 5
  %14 = getelementptr inbounds nuw %struct.nghttp2_active_outbound_item, ptr %13, i32 0, i32 0
  %15 = load ptr, ptr %14, align 8, !tbaa !111
  %16 = icmp ne ptr %15, null
  br i1 %16, label %51, label %17

17:                                               ; preds = %11
  %18 = load ptr, ptr %3, align 8, !tbaa !7
  %19 = getelementptr inbounds nuw %struct.nghttp2_session, ptr %18, i32 0, i32 1
  %20 = getelementptr inbounds nuw %struct.nghttp2_outbound_queue, ptr %19, i32 0, i32 0
  %21 = load ptr, ptr %20, align 8, !tbaa !148
  %22 = icmp ne ptr %21, null
  br i1 %22, label %51, label %23

23:                                               ; preds = %17
  %24 = load ptr, ptr %3, align 8, !tbaa !7
  %25 = getelementptr inbounds nuw %struct.nghttp2_session, ptr %24, i32 0, i32 2
  %26 = getelementptr inbounds nuw %struct.nghttp2_outbound_queue, ptr %25, i32 0, i32 0
  %27 = load ptr, ptr %26, align 8, !tbaa !149
  %28 = icmp ne ptr %27, null
  br i1 %28, label %51, label %29

29:                                               ; preds = %23
  %30 = load ptr, ptr %3, align 8, !tbaa !7
  %31 = call i32 @session_sched_empty(ptr noundef %30)
  %32 = icmp ne i32 %31, 0
  br i1 %32, label %38, label %33

33:                                               ; preds = %29
  %34 = load ptr, ptr %3, align 8, !tbaa !7
  %35 = getelementptr inbounds nuw %struct.nghttp2_session, ptr %34, i32 0, i32 35
  %36 = load i32, ptr %35, align 4, !tbaa !58
  %37 = icmp sgt i32 %36, 0
  br i1 %37, label %51, label %38

38:                                               ; preds = %33, %29
  %39 = load ptr, ptr %3, align 8, !tbaa !7
  %40 = getelementptr inbounds nuw %struct.nghttp2_session, ptr %39, i32 0, i32 3
  %41 = getelementptr inbounds nuw %struct.nghttp2_outbound_queue, ptr %40, i32 0, i32 0
  %42 = load ptr, ptr %41, align 8, !tbaa !139
  %43 = icmp ne ptr %42, null
  br i1 %43, label %44, label %49

44:                                               ; preds = %38
  %45 = load ptr, ptr %3, align 8, !tbaa !7
  %46 = call i32 @session_is_outgoing_concurrent_streams_max(ptr noundef %45)
  %47 = icmp ne i32 %46, 0
  %48 = xor i1 %47, true
  br label %49

49:                                               ; preds = %44, %38
  %50 = phi i1 [ false, %38 ], [ %48, %44 ]
  br label %51

51:                                               ; preds = %49, %33, %23, %17, %11
  %52 = phi i1 [ true, %33 ], [ true, %23 ], [ true, %17 ], [ true, %11 ], [ %50, %49 ]
  %53 = zext i1 %52 to i32
  store i32 %53, ptr %2, align 4
  br label %54

54:                                               ; preds = %51, %10
  %55 = load i32, ptr %2, align 4
  ret i32 %55
}

; Function Attrs: nounwind uwtable
define i32 @nghttp2_session_want_read(ptr noundef %0) #0 {
  %2 = alloca i32, align 4
  %3 = alloca ptr, align 8
  %4 = alloca i64, align 8
  %5 = alloca i32, align 4
  store ptr %0, ptr %3, align 8, !tbaa !7
  call void @llvm.lifetime.start.p0(i64 8, ptr %4) #10
  %6 = load ptr, ptr %3, align 8, !tbaa !7
  %7 = getelementptr inbounds nuw %struct.nghttp2_session, ptr %6, i32 0, i32 50
  %8 = load i8, ptr %7, align 4, !tbaa !39
  %9 = zext i8 %8 to i32
  %10 = and i32 %9, 2
  %11 = icmp ne i32 %10, 0
  br i1 %11, label %12, label %13

12:                                               ; preds = %1
  store i32 0, ptr %2, align 4
  store i32 1, ptr %5, align 4
  br label %27

13:                                               ; preds = %1
  %14 = load ptr, ptr %3, align 8, !tbaa !7
  %15 = call i64 @session_get_num_active_streams(ptr noundef %14)
  store i64 %15, ptr %4, align 8, !tbaa !41
  %16 = load i64, ptr %4, align 8, !tbaa !41
  %17 = icmp ugt i64 %16, 0
  br i1 %17, label %18, label %19

18:                                               ; preds = %13
  store i32 1, ptr %2, align 4
  store i32 1, ptr %5, align 4
  br label %27

19:                                               ; preds = %13
  %20 = load ptr, ptr %3, align 8, !tbaa !7
  %21 = getelementptr inbounds nuw %struct.nghttp2_session, ptr %20, i32 0, i32 50
  %22 = load i8, ptr %21, align 4, !tbaa !39
  %23 = zext i8 %22 to i32
  %24 = and i32 %23, 12
  %25 = icmp eq i32 %24, 0
  %26 = zext i1 %25 to i32
  store i32 %26, ptr %2, align 4
  store i32 1, ptr %5, align 4
  br label %27

27:                                               ; preds = %19, %18, %12
  call void @llvm.lifetime.end.p0(i64 8, ptr %4) #10
  %28 = load i32, ptr %2, align 4
  ret i32 %28
}

; Function Attrs: nounwind uwtable
define internal i32 @session_is_closing(ptr noundef %0) #0 {
  %2 = alloca ptr, align 8
  store ptr %0, ptr %2, align 8, !tbaa !7
  %3 = load ptr, ptr %2, align 8, !tbaa !7
  %4 = getelementptr inbounds nuw %struct.nghttp2_session, ptr %3, i32 0, i32 50
  %5 = load i8, ptr %4, align 4, !tbaa !39
  %6 = zext i8 %5 to i32
  %7 = and i32 %6, 1
  %8 = icmp ne i32 %7, 0
  br i1 %8, label %19, label %9

9:                                                ; preds = %1
  %10 = load ptr, ptr %2, align 8, !tbaa !7
  %11 = call i32 @nghttp2_session_want_read(ptr noundef %10)
  %12 = icmp eq i32 %11, 0
  br i1 %12, label %13, label %17

13:                                               ; preds = %9
  %14 = load ptr, ptr %2, align 8, !tbaa !7
  %15 = call i32 @nghttp2_session_want_write(ptr noundef %14)
  %16 = icmp eq i32 %15, 0
  br label %17

17:                                               ; preds = %13, %9
  %18 = phi i1 [ false, %9 ], [ %16, %13 ]
  br label %19

19:                                               ; preds = %17, %1
  %20 = phi i1 [ true, %1 ], [ %18, %17 ]
  %21 = zext i1 %20 to i32
  ret i32 %21
}