; Function Attrs: nounwind uwtable
define internal fastcc range(i32 0, 2) i32 @session_is_closing(ptr noundef %0) unnamed_addr #1 {
  %2 = getelementptr inbounds nuw i8, ptr %0, i64 2676
  %3 = load i8, ptr %2, align 4, !tbaa !3
  %4 = and i8 %3, 1
  %.not = icmp eq i8 %4, 0
  br i1 %.not, label %5, label %nghttp2_session_want_read.exit.thread6

5:                                                ; preds = %1
  %6 = and i8 %3, 2
  %.not.i = icmp eq i8 %6, 0
  br i1 %.not.i, label %7, label %nghttp2_session_want_read.exit.thread

7:                                                ; preds = %5
  %8 = tail call i64 @nghttp2_map_size(ptr noundef nonnull %0) #16
  %9 = getelementptr inbounds nuw i8, ptr %0, i64 2472
  %10 = load i64, ptr %9, align 8, !tbaa !142
  %11 = getelementptr inbounds nuw i8, ptr %0, i64 2480
  %12 = load i64, ptr %11, align 8, !tbaa !126
  %13 = add i64 %12, %10
  %.not4.i = icmp eq i64 %8, %13
  br i1 %.not4.i, label %nghttp2_session_want_read.exit, label %nghttp2_session_want_read.exit.thread6

nghttp2_session_want_read.exit:                   ; preds = %7
  %14 = load i8, ptr %2, align 4, !tbaa !3
  %15 = and i8 %14, 12
  %.not8 = icmp eq i8 %15, 0
  br i1 %.not8, label %nghttp2_session_want_read.exit.thread6, label %nghttp2_session_want_read.exit.thread

nghttp2_session_want_read.exit.thread:            ; preds = %5, %nghttp2_session_want_read.exit
  %16 = phi i8 [ %3, %5 ], [ %14, %nghttp2_session_want_read.exit ]
  %17 = and i8 %16, 2
  %.not.i3 = icmp eq i8 %17, 0
  br i1 %.not.i3, label %18, label %nghttp2_session_want_read.exit.thread6

18:                                               ; preds = %nghttp2_session_want_read.exit.thread
  %19 = getelementptr inbounds nuw i8, ptr %0, i64 424
  %20 = load ptr, ptr %19, align 8, !tbaa !112
  %.not8.i = icmp eq ptr %20, null
  br i1 %.not8.i, label %21, label %nghttp2_session_want_read.exit.thread6

21:                                               ; preds = %18
  %22 = getelementptr inbounds nuw i8, ptr %0, i64 32
  %23 = load ptr, ptr %22, align 8, !tbaa !143
  %.not9.i = icmp eq ptr %23, null
  br i1 %.not9.i, label %24, label %nghttp2_session_want_read.exit.thread6

24:                                               ; preds = %21
  %25 = getelementptr inbounds nuw i8, ptr %0, i64 56
  %26 = load ptr, ptr %25, align 8, !tbaa !144
  %.not10.i = icmp eq ptr %26, null
  br i1 %.not10.i, label %27, label %nghttp2_session_want_read.exit.thread6

27:                                               ; preds = %24
  %28 = getelementptr inbounds nuw i8, ptr %0, i64 104
  br label %31

29:                                               ; preds = %31
  %30 = add nuw nsw i64 %.05.i.i, 1
  %exitcond.not.i.i = icmp eq i64 %30, 8
  br i1 %exitcond.not.i.i, label %session_sched_empty.exit.i, label %31, !llvm.loop !145

31:                                               ; preds = %29, %27
  %.05.i.i = phi i64 [ 0, %27 ], [ %30, %29 ]
  %32 = getelementptr inbounds nuw [8 x %struct.anon], ptr %28, i64 0, i64 %.05.i.i
  %33 = tail call i32 @nghttp2_pq_empty(ptr noundef nonnull %32) #16
  %.not.i.i = icmp eq i32 %33, 0
  br i1 %.not.i.i, label %34, label %29

34:                                               ; preds = %31
  %35 = getelementptr inbounds nuw i8, ptr %0, i64 2572
  %36 = load i32, ptr %35, align 4, !tbaa !48
  %37 = icmp sgt i32 %36, 0
  br i1 %37, label %nghttp2_session_want_read.exit.thread6, label %session_sched_empty.exit.i

session_sched_empty.exit.i:                       ; preds = %29, %34
  %38 = getelementptr inbounds nuw i8, ptr %0, i64 80
  %39 = load ptr, ptr %38, align 8, !tbaa !132
  %.not12.i = icmp eq ptr %39, null
  br i1 %.not12.i, label %nghttp2_session_want_read.exit.thread6, label %40

40:                                               ; preds = %session_sched_empty.exit.i
  %41 = getelementptr i8, ptr %0, i64 2440
  %.val.i = load i64, ptr %41, align 8, !tbaa !129
  %42 = getelementptr i8, ptr %0, i64 2604
  %.val14.i = load i32, ptr %42, align 4, !tbaa !66
  %43 = zext i32 %.val14.i to i64
  %44 = icmp uge i64 %.val.i, %43
  %45 = zext i1 %44 to i32
  br label %nghttp2_session_want_read.exit.thread6

nghttp2_session_want_read.exit.thread6:           ; preds = %40, %session_sched_empty.exit.i, %34, %24, %21, %18, %nghttp2_session_want_read.exit.thread, %7, %nghttp2_session_want_read.exit, %1
  %46 = phi i32 [ 1, %1 ], [ 0, %nghttp2_session_want_read.exit ], [ 0, %7 ], [ 1, %nghttp2_session_want_read.exit.thread ], [ 0, %34 ], [ 0, %24 ], [ 0, %21 ], [ 0, %18 ], [ 1, %session_sched_empty.exit.i ], [ %45, %40 ]
  ret i32 %46
}